Certificate:
    Data:
        Version: 3 (0x2)
        Serial Number: 19 (0x13)
        Signature Algorithm: sha256WithRSAEncryption
        Issuer: C=US, O=Google, OU=Enterprise, CN=Enterprise Subordinate CA
        Validity
            Not Before: Jul 13 09:51:47 2022 GMT
            Not After : Oct 20 09:51:47 2024 GMT
        Subject: C=US, O=Google, OU=Enterprise, CN=server.domain.com
        Subject Public Key Info:
            Public Key Algorithm: rsaEncryption
                RSA Public-Key: (2048 bit)
                Modulus:
                    00:9c:5d:b0:d4:84:8c:64:6d:a3:64:d4:16:1c:11:
                    a9:76:0b:53:f7:c3:ad:94:0e:fe:00:44:e6:0c:38:
                    bb:5b:40:fe:2c:ca:ae:8c:04:e5:26:7a:d3:b5:2d:
                    a2:3d:78:6f:2b:79:89:b3:62:81:f7:04:37:74:d2:
                    5c:61:88:19:cf:63:3e:4c:b1:b1:9d:17:bf:15:42:
                    35:bb:e4:62:f4:8b:cc:a9:06:c5:cc:00:49:c4:fb:
                    2e:e1:e2:06:e9:43:eb:49:bf:41:70:12:b1:5d:81:
                    5c:ae:18:8c:ef:e2:7b:c4:64:f1:77:4e:27:aa:3c:
                    31:06:af:c5:62:96:7e:30:8a:04:6a:d5:d3:b5:fe:
                    92:fa:0c:ba:7b:a9:a8:b6:e8:cb:3d:c2:29:dd:47:
                    40:72:08:5e:65:86:44:e5:86:02:a7:93:28:4b:53:
                    8c:9c:72:ad:e9:3e:32:8e:fd:bb:b3:d8:98:bd:2d:
                    0c:3b:37:e1:79:9e:3f:f5:ae:62:24:67:90:e5:22:
                    a3:ae:87:94:f8:00:f8:c1:fd:53:3b:59:fa:76:26:
                    9c:ab:2f:c2:cb:2e:fc:61:5f:2d:04:18:94:07:b7:
                    6d:dd:a6:d5:65:36:ea:75:06:1b:9b:da:5c:62:98:
                    55:1c:d8:c2:db:ec:78:ea:6e:5c:23:60:03:3c:b3:
                    f8:d3
                Exponent: 65537 (0x10001)
        X509v3 extensions:
            X509v3 Key Usage: critical
                Digital Signature
            X509v3 Basic Constraints: 
                CA:FALSE
            X509v3 Extended Key Usage: 
                TLS Web Server Authentication
            X509v3 Subject Key Identifier: 
                F3:63:45:54:07:64:6A:6C:A0:64:A1:A9:1E:46:F6:D1:78:29:02:65
            X509v3 Authority Key Identifier: 
                keyid:B7:BA:B0:02:A1:E7:BE:34:C6:C1:05:5C:66:78:E5:BB:53:5D:A1:54

            Authority Information Access: 
                CA Issuers - URI:http://pki.esodemoapp2.com/ca/tls-ca.cer

            X509v3 CRL Distribution Points: 

                Full Name:
                  URI:http://pki.esodemoapp2.com/ca/tls-ca.crl

            X509v3 Subject Alternative Name: 
                DNS:server.domain.com
    Signature Algorithm: sha256WithRSAEncryption
         9b:fa:d4:47:ae:3a:34:23:fd:6a:ef:54:5d:8f:72:0c:59:9f:
         0a:f9:8d:96:36:34:f0:18:16:13:cc:46:57:32:9d:04:ba:7a:
         1c:fd:0c:e9:0c:b7:bc:a0:c5:ef:d2:ff:e2:d6:9d:1c:c7:ee:
         42:f6:7b:02:8a:0f:76:5f:f2:ee:b9:f6:e7:d5:b3:2d:fe:d7:
         59:ec:df:a1:37:3f:dc:3e:8f:43:00:6b:a8:98:d2:75:41:61:
         b5:24:55:75:16:3d:6c:79:c6:c1:44:4f:34:aa:6c:8e:64:29:
         8d:b5:e5:57:d4:1e:c2:9b:8b:71:39:e7:00:ed:84:26:fb:d6:
         42:15:6e:19:83:4e:ac:e1:88:0d:6f:27:aa:66:4b:e7:b0:c1:
         33:6f:b8:43:99:f5:3c:ab:50:66:43:ce:e6:11:4b:bc:d9:4f:
         58:a9:18:68:fd:36:21:fd:8f:99:a7:c4:1a:2a:fc:df:e0:1d:
         39:bd:fb:2f:36:d2:66:10:af:2d:72:a7:48:e6:57:c8:e6:4f:
         e9:b4:2f:84:74:f3:83:d8:b9:ca:d4:34:ad:05:72:96:70:33:
         b0:39:70:e2:6d:7b:14:85:5f:ca:34:d0:09:75:d8:15:7d:d6:
         91:74:93:0d:75:b0:85:99:f5:a1:b4:e8:96:c7:49:03:d2:6a:
         a2:67:7c:c0
-----BEGIN CERTIFICATE-----
MIIENjCCAx6gAwIBAgIBEzANBgkqhkiG9w0BAQsFADBXMQswCQYDVQQGEwJVUzEP
MA0GA1UECgwGR29vZ2xlMRMwEQYDVQQLDApFbnRlcnByaXNlMSIwIAYDVQQDDBlF
bnRlcnByaXNlIFN1Ym9yZGluYXRlIENBMB4XDTIyMDcxMzA5NTE0N1oXDTI0MTAy
MDA5NTE0N1owTzELMAkGA1UEBhMCVVMxDzANBgNVBAoMBkdvb2dsZTETMBEGA1UE
CwwKRW50ZXJwcmlzZTEaMBgGA1UEAwwRc2VydmVyLmRvbWFpbi5jb20wggEiMA0G
CSqGSIb3DQEBAQUAA4IBDwAwggEKAoIBAQCcXbDUhIxkbaNk1BYcEal2C1P3w62U
Dv4AROYMOLtbQP4syq6MBOUmetO1LaI9eG8reYmzYoH3BDd00lxhiBnPYz5MsbGd
F78VQjW75GL0i8ypBsXMAEnE+y7h4gbpQ+tJv0FwErFdgVyuGIzv4nvEZPF3Tieq
PDEGr8Viln4wigRq1dO1/pL6DLp7qai26Ms9windR0ByCF5lhkTlhgKnkyhLU4yc
cq3pPjKO/buz2Ji9LQw7N+F5nj/1rmIkZ5DlIqOuh5T4APjB/VM7Wfp2JpyrL8LL
LvxhXy0EGJQHt23dptVlNup1Bhub2lximFUc2MLb7HjqblwjYAM8s/jTAgMBAAGj
ggETMIIBDzAOBgNVHQ8BAf8EBAMCB4AwCQYDVR0TBAIwADATBgNVHSUEDDAKBggr
BgEFBQcDATAdBgNVHQ4EFgQU82NFVAdkamygZKGpHkb20XgpAmUwHwYDVR0jBBgw
FoAUt7qwAqHnvjTGwQVcZnjlu1NdoVQwRAYIKwYBBQUHAQEEODA2MDQGCCsGAQUF
BzAChihodHRwOi8vcGtpLmVzb2RlbW9hcHAyLmNvbS9jYS90bHMtY2EuY2VyMDkG
A1UdHwQyMDAwLqAsoCqGKGh0dHA6Ly9wa2kuZXNvZGVtb2FwcDIuY29tL2NhL3Rs
cy1jYS5jcmwwHAYDVR0RBBUwE4IRc2VydmVyLmRvbWFpbi5jb20wDQYJKoZIhvcN
AQELBQADggEBAJv61EeuOjQj/WrvVF2PcgxZnwr5jZY2NPAYFhPMRlcynQS6ehz9
DOkMt7ygxe/S/+LWnRzH7kL2ewKKD3Zf8u659ufVsy3+11ns36E3P9w+j0MAa6iY
0nVBYbUkVXUWPWx5xsFETzSqbI5kKY215VfUHsKbi3E55wDthCb71kIVbhmDTqzh
iA1vJ6pmS+ewwTNvuEOZ9TyrUGZDzuYRS7zZT1ipGGj9NiH9j5mnxBoq/N/gHTm9
+y820mYQry1yp0jmV8jmT+m0L4R084PYucrUNK0FcpZwM7A5cOJtexSFX8o00Al1
2BV91pF0kw11sIWZ9aG06JbHSQPSaqJnfMA=
-----END CERTIFICATE-----
