Certificate:
    Data:
        Version: 3 (0x2)
        Serial Number: 15 (0xf)
        Signature Algorithm: sha256WithRSAEncryption
        Issuer: C=US, O=Google, OU=Enterprise, CN=Enterprise Subordinate CA
        Validity
            Not Before: May 19 14:13:46 2022 GMT
            Not After : Aug 26 14:13:46 2024 GMT
        Subject: C=US, O=Google, OU=Enterprise, CN=grpc.yourdomain.com
        Subject Public Key Info:
            Public Key Algorithm: rsaEncryption
                RSA Public-Key: (2048 bit)
                Modulus:
                    00:cf:5b:0e:0f:42:d1:60:d0:af:2a:d0:07:26:b8:
                    30:f7:84:e5:e9:62:3d:01:ec:c4:e4:c6:72:82:99:
                    a4:1c:32:ff:da:6e:b9:ba:48:34:4f:9d:8b:9b:c1:
                    cb:f9:7f:45:f0:77:a9:12:c0:55:5a:03:69:59:25:
                    16:cc:64:15:e3:63:61:d8:37:6d:86:52:07:8f:71:
                    e2:ab:cb:87:30:21:48:bb:85:48:d2:e4:fb:11:82:
                    a8:aa:71:77:19:c2:8a:08:2c:00:55:1a:46:ff:c4:
                    a1:c4:38:02:d8:54:41:7a:3a:fc:fe:0a:cc:d4:e6:
                    c1:77:04:e4:3e:0a:23:c9:c0:2f:3e:36:2b:ed:14:
                    df:ab:da:a5:e6:48:84:1c:f9:83:c6:73:c1:d8:8e:
                    56:b3:31:d0:35:ad:9f:3e:af:2f:97:4f:d0:8b:11:
                    4e:ca:9f:6f:eb:0d:4c:29:57:0f:fd:46:03:94:56:
                    41:41:28:39:dc:b3:bb:fe:12:6e:3f:4d:ce:41:c1:
                    af:1c:ff:d9:b0:ec:6c:66:2c:b0:2f:40:61:4b:b6:
                    ff:b6:2b:83:19:7b:95:72:ee:ff:45:c8:91:7e:0b:
                    be:05:a6:66:ee:1e:6b:47:f9:16:79:11:74:c1:dc:
                    1b:b6:6a:87:68:1f:4b:89:1c:36:38:e3:d3:f5:43:
                    02:45
                Exponent: 65537 (0x10001)
        X509v3 extensions:
            X509v3 Key Usage: critical
                Digital Signature
            X509v3 Basic Constraints: 
                CA:FALSE
            X509v3 Extended Key Usage: 
                TLS Web Server Authentication
            X509v3 Subject Key Identifier: 
                5A:03:23:A0:35:1F:C8:FA:E2:A0:2C:6E:9C:18:23:6B:A5:E7:B4:23
            X509v3 Authority Key Identifier: 
                keyid:B7:BA:B0:02:A1:E7:BE:34:C6:C1:05:5C:66:78:E5:BB:53:5D:A1:54

            Authority Information Access: 
                CA Issuers - URI:http://pki.esodemoapp2.com/ca/tls-ca.cer

            X509v3 CRL Distribution Points: 

                Full Name:
                  URI:http://pki.esodemoapp2.com/ca/tls-ca.crl

            X509v3 Subject Alternative Name: 
                DNS:grpc.yourdomain.com
    Signature Algorithm: sha256WithRSAEncryption
         8a:23:0e:56:38:10:67:54:ce:73:63:02:8e:c1:f5:d2:0f:05:
         02:00:86:54:fc:34:d9:9b:e6:0b:d1:da:c4:28:b8:8a:7c:98:
         b6:70:fb:e5:d6:0d:59:f8:c5:64:79:d6:60:1e:c9:5a:af:69:
         f8:db:70:73:46:43:1e:18:8a:e9:22:ec:1e:0b:1f:7e:13:12:
         2e:40:14:5b:1a:42:8b:de:c3:ba:df:46:bc:f0:8e:e9:c2:cb:
         a8:2e:5d:79:7a:a5:28:de:50:14:bc:61:fd:c2:3d:d8:21:99:
         47:2e:41:60:e3:03:24:e9:51:94:fa:b4:97:df:f8:0b:42:d9:
         b8:7a:bd:03:13:69:73:7e:ef:03:9c:82:06:e6:ef:10:b7:17:
         4a:a9:fd:13:ed:97:f7:00:4c:2b:c8:5b:dd:57:e6:60:a2:9d:
         f9:83:fe:2c:b6:3f:dc:0e:11:09:c8:65:1f:c4:e8:db:a9:9b:
         43:de:37:b5:00:65:11:a5:3e:0f:a5:ea:d4:96:fd:c3:7d:9c:
         2e:b1:cd:d2:ec:56:37:10:57:93:13:b6:0f:57:d1:54:44:fc:
         5c:2a:ce:96:1c:52:b3:17:ff:f7:94:c3:80:ed:a6:6c:73:9d:
         6b:3a:ad:53:da:71:57:9f:ea:97:77:30:68:ba:eb:44:7f:5a:
         0c:9a:c2:ea
-----BEGIN CERTIFICATE-----
MIIEOjCCAyKgAwIBAgIBDzANBgkqhkiG9w0BAQsFADBXMQswCQYDVQQGEwJVUzEP
MA0GA1UECgwGR29vZ2xlMRMwEQYDVQQLDApFbnRlcnByaXNlMSIwIAYDVQQDDBlF
bnRlcnByaXNlIFN1Ym9yZGluYXRlIENBMB4XDTIyMDUxOTE0MTM0NloXDTI0MDgy
NjE0MTM0NlowUTELMAkGA1UEBhMCVVMxDzANBgNVBAoMBkdvb2dsZTETMBEGA1UE
CwwKRW50ZXJwcmlzZTEcMBoGA1UEAwwTZ3JwYy55b3VyZG9tYWluLmNvbTCCASIw
DQYJKoZIhvcNAQEBBQADggEPADCCAQoCggEBAM9bDg9C0WDQryrQBya4MPeE5eli
PQHsxOTGcoKZpBwy/9puubpINE+di5vBy/l/RfB3qRLAVVoDaVklFsxkFeNjYdg3
bYZSB49x4qvLhzAhSLuFSNLk+xGCqKpxdxnCiggsAFUaRv/EocQ4AthUQXo6/P4K
zNTmwXcE5D4KI8nALz42K+0U36vapeZIhBz5g8ZzwdiOVrMx0DWtnz6vL5dP0IsR
Tsqfb+sNTClXD/1GA5RWQUEoOdyzu/4Sbj9NzkHBrxz/2bDsbGYssC9AYUu2/7Yr
gxl7lXLu/0XIkX4LvgWmZu4ea0f5FnkRdMHcG7Zqh2gfS4kcNjjj0/VDAkUCAwEA
AaOCARUwggERMA4GA1UdDwEB/wQEAwIHgDAJBgNVHRMEAjAAMBMGA1UdJQQMMAoG
CCsGAQUFBwMBMB0GA1UdDgQWBBRaAyOgNR/I+uKgLG6cGCNrpee0IzAfBgNVHSME
GDAWgBS3urACoee+NMbBBVxmeOW7U12hVDBEBggrBgEFBQcBAQQ4MDYwNAYIKwYB
BQUHMAKGKGh0dHA6Ly9wa2kuZXNvZGVtb2FwcDIuY29tL2NhL3Rscy1jYS5jZXIw
OQYDVR0fBDIwMDAuoCygKoYoaHR0cDovL3BraS5lc29kZW1vYXBwMi5jb20vY2Ev
dGxzLWNhLmNybDAeBgNVHREEFzAVghNncnBjLnlvdXJkb21haW4uY29tMA0GCSqG
SIb3DQEBCwUAA4IBAQCKIw5WOBBnVM5zYwKOwfXSDwUCAIZU/DTZm+YL0drEKLiK
fJi2cPvl1g1Z+MVkedZgHslar2n423BzRkMeGIrpIuweCx9+ExIuQBRbGkKL3sO6
30a88I7pwsuoLl15eqUo3lAUvGH9wj3YIZlHLkFg4wMk6VGU+rSX3/gLQtm4er0D
E2lzfu8DnIIG5u8QtxdKqf0T7Zf3AEwryFvdV+Zgop35g/4stj/cDhEJyGUfxOjb
qZtD3je1AGURpT4PperUlv3DfZwusc3S7FY3EFeTE7YPV9FURPxcKs6WHFKzF//3
lMOA7aZsc51rOq1T2nFXn+qXdzBouutEf1oMmsLq
-----END CERTIFICATE-----
